librealsense.so.0:_Z18rs_get_format_name9rs_formatPP8rs_error
librealsense.so.0:_Z18rs_get_option_name9rs_optionPP8rs_error
librealsense.so.0:_Z18rs_get_preset_name9rs_presetPP8rs_error
librealsense.so.0:_Z18rs_get_stream_name9rs_streamPP8rs_error
librealsense.so.0:_Z22rs_get_distortion_name13rs_distortionPP8rs_error
librealsense.so.0:_ZN10rs_contextC1Ei
librealsense.so.0:_ZN10rs_contextC1Ev
librealsense.so.0:_ZN10rs_contextC2Ei
librealsense.so.0:_ZN10rs_contextC2Ev
librealsense.so.0:_ZN10rs_contextD1Ev
librealsense.so.0:_ZN10rs_contextD2Ev
librealsense.so.0:_ZN6rsimpl10get_dinghyERKNS_14subdevice_modeEPKv
librealsense.so.0:_ZN6rsimpl10get_stringE13rs_distortion
librealsense.so.0:_ZN6rsimpl10get_stringE9rs_format
librealsense.so.0:_ZN6rsimpl10get_stringE9rs_option
librealsense.so.0:_ZN6rsimpl10get_stringE9rs_preset
librealsense.so.0:_ZN6rsimpl10get_stringE9rs_stream
librealsense.so.0:_ZN6rsimpl11deproject_zEPfRK13rs_intrinsicsPKtf
librealsense.so.0:_ZN6rsimpl11f200_camera11get_optionsEPK9rs_optioniPd
librealsense.so.0:_ZN6rsimpl11f200_camera11set_optionsEPK9rs_optioniPKd
librealsense.so.0:_ZN6rsimpl11f200_camera15on_before_startERKSt6vectorINS_24subdevice_mode_selectionESaIS2_EE
librealsense.so.0:_ZN6rsimpl11f200_camera17select_key_streamERKSt6vectorINS_24subdevice_mode_selectionESaIS2_EE
librealsense.so.0:_ZN6rsimpl11f200_camera24temperature_control_loopEv
librealsense.so.0:_ZN6rsimpl11f200_cameraC1ESt10shared_ptrINS_3uvc6deviceEERKNS_18static_device_infoERKNS_4f20027CameraCalibrationParametersERKNS8_20IVCAMTemperatureDataERKNS8_22IVCAMThermalLoopParamsE
librealsense.so.0:_ZN6rsimpl11f200_cameraC2ESt10shared_ptrINS_3uvc6deviceEERKNS_18static_device_infoERKNS_4f20027CameraCalibrationParametersERKNS8_20IVCAMTemperatureDataERKNS8_22IVCAMThermalLoopParamsE
librealsense.so.0:_ZN6rsimpl11f200_cameraD1Ev
librealsense.so.0:_ZN6rsimpl11f200_cameraD2Ev
librealsense.so.0:_ZN6rsimpl11log_to_fileE15rs_log_severityPKc
librealsense.so.0:_ZN6rsimpl11r200_camera11get_optionsEPK9rs_optioniPd
librealsense.so.0:_ZN6rsimpl11r200_camera11set_optionsEPK9rs_optioniPKd
librealsense.so.0:_ZN6rsimpl11r200_camera15on_before_startERKSt6vectorINS_24subdevice_mode_selectionESaIS2_EE
librealsense.so.0:_ZN6rsimpl11r200_camera16get_option_rangeE9rs_optionRdS2_S2_
librealsense.so.0:_ZN6rsimpl11r200_camera17select_key_streamERKSt6vectorINS_24subdevice_mode_selectionESaIS2_EE
librealsense.so.0:_ZN6rsimpl11r200_camera21on_update_depth_unitsEj
librealsense.so.0:_ZN6rsimpl11r200_camera30on_update_disparity_multiplierEd
librealsense.so.0:_ZN6rsimpl11r200_cameraC1ESt10shared_ptrINS_3uvc6deviceEERKNS_18static_device_infoE
librealsense.so.0:_ZN6rsimpl11r200_cameraC2ESt10shared_ptrINS_3uvc6deviceEERKNS_18static_device_infoE
librealsense.so.0:_ZN6rsimpl11r200_cameraD1Ev
librealsense.so.0:_ZN6rsimpl11r200_cameraD2Ev
librealsense.so.0:_ZN6rsimpl13frame_archive11alloc_frameE9rs_streami
librealsense.so.0:_ZN6rsimpl13frame_archive11cull_framesEv
librealsense.so.0:_ZN6rsimpl13frame_archive12commit_frameE9rs_stream
librealsense.so.0:_ZN6rsimpl13frame_archive13dequeue_frameE9rs_stream
librealsense.so.0:_ZN6rsimpl13frame_archive13discard_frameE9rs_stream
librealsense.so.0:_ZN6rsimpl13frame_archive15get_next_framesEv
librealsense.so.0:_ZN6rsimpl13frame_archive15poll_for_framesEv
librealsense.so.0:_ZN6rsimpl13frame_archive15wait_for_framesEv
librealsense.so.0:_ZN6rsimpl13frame_archiveC1ERKSt6vectorINS_24subdevice_mode_selectionESaIS2_EE9rs_stream
librealsense.so.0:_ZN6rsimpl13frame_archiveC2ERKSt6vectorINS_24subdevice_mode_selectionESaIS2_EE9rs_stream
librealsense.so.0:_ZN6rsimpl13native_streamC1ERNS_13device_configE9rs_stream
librealsense.so.0:_ZN6rsimpl13native_streamC2ERNS_13device_configE9rs_stream
librealsense.so.0:_ZN6rsimpl13rectify_imageEPNS_4byteERKSt6vectorIiSaIiEEPKS0_9rs_format
librealsense.so.0:_ZN6rsimpl14get_image_sizeEii9rs_format
librealsense.so.0:_ZN6rsimpl14log_to_consoleE15rs_log_severity
librealsense.so.0:_ZN6rsimpl16align_other_to_zEPNS_4byteEPKtfRK13rs_intrinsicsRK13rs_extrinsicsS6_PKS0_9rs_format
librealsense.so.0:_ZN6rsimpl16align_z_to_otherEPNS_4byteEPKtfRK13rs_intrinsicsRK13rs_extrinsicsS6_
librealsense.so.0:_ZN6rsimpl16make_f200_deviceESt10shared_ptrINS_3uvc6deviceEE
librealsense.so.0:_ZN6rsimpl16make_r200_deviceESt10shared_ptrINS_3uvc6deviceEE
librealsense.so.0:_ZN6rsimpl17make_sr300_deviceESt10shared_ptrINS_3uvc6deviceEE
librealsense.so.0:_ZN6rsimpl18static_device_infoC1Ev
librealsense.so.0:_ZN6rsimpl18static_device_infoC2Ev
librealsense.so.0:_ZN6rsimpl18unpack_y16_from_y8EPKPNS_4byteEPKS0_i
librealsense.so.0:_ZN6rsimpl19deproject_disparityEPfRK13rs_intrinsicsPKtf
librealsense.so.0:_ZN6rsimpl21unpack_y8_from_y16_10EPKPNS_4byteEPKS0_i
librealsense.so.0:_ZN6rsimpl21unpack_y8_y8_from_y8iEPKPNS_4byteEPKS0_i
librealsense.so.0:_ZN6rsimpl22unpack_y16_from_y16_10EPKPNS_4byteEPKS0_i
librealsense.so.0:_ZN6rsimpl24align_disparity_to_otherEPNS_4byteEPKtfRK13rs_intrinsicsRK13rs_extrinsicsS6_
librealsense.so.0:_ZN6rsimpl24align_other_to_disparityEPNS_4byteEPKtfRK13rs_intrinsicsRK13rs_extrinsicsS6_PKS0_9rs_format
librealsense.so.0:_ZN6rsimpl27compute_rectification_tableERK13rs_intrinsicsRK13rs_extrinsicsS2_
librealsense.so.0:_ZN6rsimpl27unpack_y16_y16_from_y12i_10EPKPNS_4byteEPKS0_i
librealsense.so.0:_ZN6rsimpl28unpack_z16_y8_from_f200_inziEPKPNS_4byteEPKS0_i
librealsense.so.0:_ZN6rsimpl29unpack_z16_y16_from_f200_inziEPKPNS_4byteEPKS0_i
librealsense.so.0:_ZN6rsimpl29unpack_z16_y8_from_sr300_inziEPKPNS_4byteEPKS0_i
librealsense.so.0:_ZN6rsimpl30unpack_z16_y16_from_sr300_inziEPKPNS_4byteEPKS0_i
librealsense.so.0:_ZN6rsimpl3logE15rs_log_severityRKNSt7__cxx1112basic_stringIcSt11char_traitsIcESaIcEEE
librealsense.so.0:_ZN6rsimpl3uvc11get_controlERKNS0_6deviceERKNS0_14extension_unitEhPvi
librealsense.so.0:_ZN6rsimpl3uvc11set_controlERNS0_6deviceERKNS0_14extension_unitEhPvi
librealsense.so.0:_ZN6rsimpl3uvc13bulk_transferERNS0_6deviceEhPviPij
librealsense.so.0:_ZN6rsimpl3uvc13get_vendor_idERKNS0_6deviceE
librealsense.so.0:_ZN6rsimpl3uvc13query_devicesESt10shared_ptrINS0_7contextEE
librealsense.so.0:_ZN6rsimpl3uvc14create_contextEv
librealsense.so.0:_ZN6rsimpl3uvc14get_product_idERKNS0_6deviceE
librealsense.so.0:_ZN6rsimpl3uvc14get_pu_controlERKNS0_6deviceEi9rs_option
librealsense.so.0:_ZN6rsimpl3uvc14set_pu_controlERNS0_6deviceEi9rs_optioni
librealsense.so.0:_ZN6rsimpl3uvc14stop_streamingERNS0_6deviceE
librealsense.so.0:_ZN6rsimpl3uvc15claim_interfaceERNS0_6deviceERKNS0_4guidEi
librealsense.so.0:_ZN6rsimpl3uvc15start_streamingERNS0_6deviceEi
librealsense.so.0:_ZN6rsimpl3uvc18set_subdevice_modeERNS0_6deviceEiiijiSt8functionIFvPKvEE
librealsense.so.0:_ZN6rsimpl3uvc20get_pu_control_rangeERKNS0_6deviceEi9rs_optionPiS5_
librealsense.so.0:_ZN6rsimpl4f20012get_accuracyERKNS_3uvc6deviceERh
librealsense.so.0:_ZN6rsimpl4f20012read_ir_tempERNS_3uvc6deviceERSt11timed_mutex
librealsense.so.0:_ZN6rsimpl4f20012set_accuracyERNS_3uvc6deviceEh
librealsense.so.0:_ZN6rsimpl4f20014read_mems_tempERNS_3uvc6deviceERSt11timed_mutex
librealsense.so.0:_ZN6rsimpl4f20014set_auto_rangeERNS_3uvc6deviceERSt11timed_mutexisssisssss
librealsense.so.0:_ZN6rsimpl4f20015fill_usb_bufferEiiiiiPciS1_Ri
librealsense.so.0:_ZN6rsimpl4f20015get_dynamic_fpsERKNS_3uvc6deviceERh
librealsense.so.0:_ZN6rsimpl4f20015get_laser_powerERKNS_3uvc6deviceERh
librealsense.so.0:_ZN6rsimpl4f20015set_dynamic_fpsERNS_3uvc6deviceEh
librealsense.so.0:_ZN6rsimpl4f20015set_laser_powerERNS_3uvc6deviceEh
librealsense.so.0:_ZN6rsimpl4f20016enable_timestampERNS_3uvc6deviceERSt11timed_mutexbb
librealsense.so.0:_ZN6rsimpl4f20016get_motion_rangeERKNS_3uvc6deviceERh
librealsense.so.0:_ZN6rsimpl4f20016set_motion_rangeERNS_3uvc6deviceEh
librealsense.so.0:_ZN6rsimpl4f20017get_filter_optionERKNS_3uvc6deviceERh
librealsense.so.0:_ZN6rsimpl4f20017get_fw_last_errorERNS_3uvc6deviceERSt11timed_mutex
librealsense.so.0:_ZN6rsimpl4f20017set_filter_optionERNS_3uvc6deviceEh
librealsense.so.0:_ZN6rsimpl4f20019execute_usb_commandERNS_3uvc6deviceERSt11timed_mutexPhmRjS6_Rm
librealsense.so.0:_ZN6rsimpl4f20019prepare_usb_commandEPhRmjjjjjS1_m
librealsense.so.0:_ZN6rsimpl4f20020force_hardware_resetERNS_3uvc6deviceERSt11timed_mutex
librealsense.so.0:_ZN6rsimpl4f20020get_f200_calibrationEPhi
librealsense.so.0:_ZN6rsimpl4f20021claim_ivcam_interfaceERNS_3uvc6deviceE
librealsense.so.0:_ZN6rsimpl4f20021read_f200_calibrationERNS_3uvc6deviceERSt11timed_mutex
librealsense.so.0:_ZN6rsimpl4f20021set_asic_coefficientsERNS_3uvc6deviceERSt11timed_mutexRKNS0_21IVCAMASICCoefficientsE
librealsense.so.0:_ZN6rsimpl4f20022read_sr300_calibrationERNS_3uvc6deviceERSt11timed_mutex
librealsense.so.0:_ZN6rsimpl4f20023send_hw_monitor_commandERNS_3uvc6deviceERSt11timed_mutexRNS0_19IVCAMCommandDetailsE
librealsense.so.0:_ZN6rsimpl4f20024get_confidence_thresholdERKNS_3uvc6deviceERh
librealsense.so.0:_ZN6rsimpl4f20024get_module_serial_stringERNS_3uvc6deviceERSt11timed_mutexRNSt7__cxx1112basic_stringIcSt11char_traitsIcESaIcEEEi
librealsense.so.0:_ZN6rsimpl4f20024set_confidence_thresholdERNS_3uvc6deviceEh
librealsense.so.0:_ZN6rsimpl4f20024update_asic_coefficientsERNS_3uvc6deviceERSt11timed_mutexRKNS0_27CameraCalibrationParametersE
librealsense.so.0:_ZN6rsimpl4f20026get_version_of_calibrationEPhS1_
librealsense.so.0:_ZN6rsimpl4f20027get_firmware_version_stringERNS_3uvc6deviceERSt11timed_mutexRNSt7__cxx1112basic_stringIcSt11char_traitsIcESaIcEEE
librealsense.so.0:_ZN6rsimpl4f20029get_f200_calibration_raw_dataERNS_3uvc6deviceERSt11timed_mutexPhRm
librealsense.so.0:_ZN6rsimpl4f20030get_sr300_calibration_raw_dataERNS_3uvc6deviceERSt11timed_mutexPhRm
librealsense.so.0:_ZN6rsimpl4f20032perform_and_send_monitor_commandERNS_3uvc6deviceERSt11timed_mutexRNS0_12IVCAMCommandE
librealsense.so.0:_ZN6rsimpl4f20038generate_asic_calibration_coefficientsERKNS0_27CameraCalibrationParametersESt6vectorIiSaIiEEbPf
librealsense.so.0:_ZN6rsimpl4f2007get_gvdERNS_3uvc6deviceERSt11timed_mutexmPc
librealsense.so.0:_ZN6rsimpl4f2007xu_readERKNS_3uvc6deviceEhPvj
librealsense.so.0:_ZN6rsimpl4f2008bcdtointEPhi
librealsense.so.0:_ZN6rsimpl4f2008xu_writeERNS_3uvc6deviceEhPvj
librealsense.so.0:_ZN6rsimpl4r20016read_camera_infoERNS_3uvc6deviceE
librealsense.so.0:_ZN6rsimpl4r20017get_emitter_stateERKNS_3uvc6deviceEbb
librealsense.so.0:_ZN6rsimpl4r20017get_stream_statusERKNS_3uvc6deviceERi
librealsense.so.0:_ZN6rsimpl4r20017read_admin_sectorERNS_3uvc6deviceEPhi
librealsense.so.0:_ZN6rsimpl4r20017read_device_pagesERNS_3uvc6deviceEjPhj
librealsense.so.0:_ZN6rsimpl4r20017set_emitter_stateERNS_3uvc6deviceEb
librealsense.so.0:_ZN6rsimpl4r20017set_stream_intentERNS_3uvc6deviceERh
librealsense.so.0:_ZN6rsimpl4r20018get_register_valueERNS_3uvc6deviceEjRj
librealsense.so.0:_ZN6rsimpl4r20018set_register_valueERNS_3uvc6deviceEjj
librealsense.so.0:_ZN6rsimpl4r20020force_firmware_resetERNS_3uvc6deviceE
librealsense.so.0:_ZN6rsimpl4r20020read_arbitrary_chunkERNS_3uvc6deviceEjPvi
librealsense.so.0:_ZN6rsimpl4r20021read_firmware_versionB5cxx11ERNS_3uvc6deviceE
librealsense.so.0:_ZN6rsimpl4r20025read_camera_head_contentsERA4096_KhRj
librealsense.so.0:_ZN6rsimpl4r20033send_command_and_receive_responseERNS_3uvc6deviceERKNS0_21CommandResponsePacketE
librealsense.so.0:_ZN6rsimpl4r20045read_calibration_and_rectification_parametersERA4096_Kh
librealsense.so.0:_ZN6rsimpl4r2007xu_readERKNS_3uvc6deviceENS0_7controlEPvj
librealsense.so.0:_ZN6rsimpl4r2008xu_writeERNS_3uvc6deviceENS0_7controlEPvj
librealsense.so.0:_ZN9rs_device13enable_streamE9rs_streamii9rs_formati
librealsense.so.0:_ZN9rs_device14disable_streamE9rs_stream
librealsense.so.0:_ZN9rs_device16get_option_rangeE9rs_optionRdS1_S1_
librealsense.so.0:_ZN9rs_device16poll_all_streamsEv
librealsense.so.0:_ZN9rs_device16wait_all_streamsEv
librealsense.so.0:_ZN9rs_device20enable_stream_presetE9rs_stream9rs_preset
librealsense.so.0:_ZN9rs_device4stopEv
librealsense.so.0:_ZN9rs_device5startEv
librealsense.so.0:_ZN9rs_deviceC1ESt10shared_ptrIN6rsimpl3uvc6deviceEERKNS1_18static_device_infoE
librealsense.so.0:_ZN9rs_deviceC2ESt10shared_ptrIN6rsimpl3uvc6deviceEERKNS1_18static_device_infoE
librealsense.so.0:_ZN9rs_deviceD1Ev
librealsense.so.0:_ZN9rs_deviceD2Ev
librealsense.so.0:_ZNK6rsimpl11f200_camera29create_frame_timestamp_readerEv
librealsense.so.0:_ZNK6rsimpl11r200_camera15supports_optionE9rs_option
librealsense.so.0:_ZNK6rsimpl11r200_camera16get_lr_framerateEv
librealsense.so.0:_ZNK6rsimpl11r200_camera25is_disparity_mode_enabledEv
librealsense.so.0:_ZNK6rsimpl11r200_camera29create_frame_timestamp_readerEv
librealsense.so.0:_ZNK6rsimpl12point_stream14get_frame_dataEv
librealsense.so.0:_ZNK6rsimpl13device_config11select_modeERA4_KNS_14stream_requestEi
librealsense.so.0:_ZNK6rsimpl13device_config12select_modesERA4_KNS_14stream_requestE
librealsense.so.0:_ZNK6rsimpl13frame_archive14get_frame_dataE9rs_stream
librealsense.so.0:_ZNK6rsimpl13frame_archive19get_frame_timestampE9rs_stream
librealsense.so.0:_ZNK6rsimpl13native_stream10is_enabledEv
librealsense.so.0:_ZNK6rsimpl13native_stream14get_frame_dataEv
librealsense.so.0:_ZNK6rsimpl13native_stream14get_intrinsicsEv
librealsense.so.0:_ZNK6rsimpl13native_stream16get_frame_numberEv
librealsense.so.0:_ZNK6rsimpl13native_stream24get_rectified_intrinsicsEv
librealsense.so.0:_ZNK6rsimpl13native_stream8get_modeEiPiS1_P9rs_formatS1_
librealsense.so.0:_ZNK6rsimpl13native_stream8get_modeEv
librealsense.so.0:_ZNK6rsimpl14aligned_stream14get_frame_dataEv
librealsense.so.0:_ZNK6rsimpl16rectified_stream14get_frame_dataEv
librealsense.so.0:_ZNK6rsimpl16stream_interface17get_extrinsics_toERKS0_
librealsense.so.0:_ZNK6rsimpl24subdevice_mode_selection14get_image_sizeE9rs_stream
librealsense.so.0:_ZNK6rsimpl24subdevice_mode_selection6unpackEPKPNS_4byteEPKS1_
librealsense.so.0:_ZNK9rs_device15supports_optionE9rs_option
librealsense.so.0:_uvc_handle_events
librealsense.so.0:_uvc_populate_frame
librealsense.so.0:_uvc_process_payload
librealsense.so.0:_uvc_status_callback
librealsense.so.0:_uvc_stream_callback
librealsense.so.0:_uvc_swap_buffers
librealsense.so.0:_uvc_user_caller
librealsense.so.0:rs_create_context
librealsense.so.0:rs_delete_context
librealsense.so.0:rs_device_supports_option
librealsense.so.0:rs_disable_stream
librealsense.so.0:rs_distortion_to_string
librealsense.so.0:rs_enable_stream
librealsense.so.0:rs_enable_stream_preset
librealsense.so.0:rs_format_to_string
librealsense.so.0:rs_free_error
librealsense.so.0:rs_get_device
librealsense.so.0:rs_get_device_count
librealsense.so.0:rs_get_device_depth_scale
librealsense.so.0:rs_get_device_extrinsics
librealsense.so.0:rs_get_device_firmware_version
librealsense.so.0:rs_get_device_name
librealsense.so.0:rs_get_device_option
librealsense.so.0:rs_get_device_option_range
librealsense.so.0:rs_get_device_options
librealsense.so.0:rs_get_device_serial
librealsense.so.0:rs_get_error_message
librealsense.so.0:rs_get_failed_args
librealsense.so.0:rs_get_failed_function
librealsense.so.0:rs_get_frame_data
librealsense.so.0:rs_get_frame_timestamp
librealsense.so.0:rs_get_stream_format
librealsense.so.0:rs_get_stream_framerate
librealsense.so.0:rs_get_stream_height
librealsense.so.0:rs_get_stream_intrinsics
librealsense.so.0:rs_get_stream_mode
librealsense.so.0:rs_get_stream_mode_count
librealsense.so.0:rs_get_stream_width
librealsense.so.0:rs_is_device_streaming
librealsense.so.0:rs_is_stream_enabled
librealsense.so.0:rs_log_to_console
librealsense.so.0:rs_log_to_file
librealsense.so.0:rs_option_to_string
librealsense.so.0:rs_poll_for_frames
librealsense.so.0:rs_preset_to_string
librealsense.so.0:rs_set_device_option
librealsense.so.0:rs_set_device_options
librealsense.so.0:rs_start_device
librealsense.so.0:rs_stop_device
librealsense.so.0:rs_stream_to_string
librealsense.so.0:rs_wait_for_frames
librealsense.so.0:uvc_allocate_frame
librealsense.so.0:uvc_already_open
librealsense.so.0:uvc_claim_if
librealsense.so.0:uvc_close
librealsense.so.0:uvc_duplicate_frame
librealsense.so.0:uvc_ensure_frame_size
librealsense.so.0:uvc_exit
librealsense.so.0:uvc_find_device
librealsense.so.0:uvc_find_frame_desc
librealsense.so.0:uvc_find_frame_desc_stream
librealsense.so.0:uvc_free_devh
librealsense.so.0:uvc_free_device_descriptor
librealsense.so.0:uvc_free_device_info
librealsense.so.0:uvc_free_device_list
librealsense.so.0:uvc_free_frame
librealsense.so.0:uvc_get_bus_number
librealsense.so.0:uvc_get_ctrl
librealsense.so.0:uvc_get_ctrl_len
librealsense.so.0:uvc_get_device
librealsense.so.0:uvc_get_device_address
librealsense.so.0:uvc_get_device_descriptor
librealsense.so.0:uvc_get_device_info
librealsense.so.0:uvc_get_device_info2
librealsense.so.0:uvc_get_device_list
librealsense.so.0:uvc_get_extension_units
librealsense.so.0:uvc_get_format_descs
librealsense.so.0:uvc_get_input_terminals
librealsense.so.0:uvc_get_libusb_handle
librealsense.so.0:uvc_get_output_terminals
librealsense.so.0:uvc_get_power_mode
librealsense.so.0:uvc_get_processing_units
librealsense.so.0:uvc_get_stream_ctrl_format_size
librealsense.so.0:uvc_init
librealsense.so.0:uvc_num_devices
librealsense.so.0:uvc_open
librealsense.so.0:uvc_open2
librealsense.so.0:uvc_parse_vc
librealsense.so.0:uvc_parse_vc_extension_unit
librealsense.so.0:uvc_parse_vc_header
librealsense.so.0:uvc_parse_vc_input_terminal
librealsense.so.0:uvc_parse_vc_processing_unit
librealsense.so.0:uvc_parse_vs
librealsense.so.0:uvc_parse_vs_format_mjpeg
librealsense.so.0:uvc_parse_vs_format_uncompressed
librealsense.so.0:uvc_parse_vs_frame_format
librealsense.so.0:uvc_parse_vs_frame_frame
librealsense.so.0:uvc_parse_vs_frame_uncompressed
librealsense.so.0:uvc_parse_vs_input_header
librealsense.so.0:uvc_perror
librealsense.so.0:uvc_print_diag
librealsense.so.0:uvc_print_stream_ctrl
librealsense.so.0:uvc_probe_stream_ctrl
librealsense.so.0:uvc_process_status_xfer
librealsense.so.0:uvc_query_stream_ctrl
librealsense.so.0:uvc_ref_device
librealsense.so.0:uvc_release_if
librealsense.so.0:uvc_scan_control
librealsense.so.0:uvc_scan_streaming
librealsense.so.0:uvc_set_ctrl
librealsense.so.0:uvc_set_power_mode
librealsense.so.0:uvc_set_status_callback
librealsense.so.0:uvc_start_handler_thread
librealsense.so.0:uvc_start_streaming
librealsense.so.0:uvc_stop_streaming
librealsense.so.0:uvc_stream_close
librealsense.so.0:uvc_stream_ctrl
librealsense.so.0:uvc_stream_get_frame
librealsense.so.0:uvc_stream_open_ctrl
librealsense.so.0:uvc_stream_start
librealsense.so.0:uvc_stream_stop
librealsense.so.0:uvc_strerror
librealsense.so.0:uvc_unref_device
